; Function Attrs: mustprogress nofree norecurse nosync nounwind willreturn memory(argmem: read) uwtable
define internal fastcc range(i32 0, 33554432) i32 @ftp_pl_get_permission(ptr noundef readonly captures(none) %0) unnamed_addr #3 {
  %2 = load i8, ptr %0, align 1, !tbaa !95
  %switch.selectcmp = icmp eq i8 %2, 45
  %switch.select = select i1 %switch.selectcmp, i32 0, i32 16777216
  %switch.selectcmp68 = icmp eq i8 %2, 114
  %switch.select69 = select i1 %switch.selectcmp68, i32 256, i32 %switch.select
  %3 = getelementptr inbounds nuw i8, ptr %0, i64 1
  %4 = load i8, ptr %3, align 1, !tbaa !95
  switch i8 %4, label %7 [
    i8 119, label %5
    i8 45, label %9
  ]

5:                                                ; preds = %1
  %6 = or disjoint i32 %switch.select69, 128
  br label %9

7:                                                ; preds = %1
  %8 = or i32 %switch.select69, 16777216
  br label %9

9:                                                ; preds = %1, %7, %5
  %.1 = phi i32 [ %6, %5 ], [ %8, %7 ], [ %switch.select69, %1 ]
  %10 = getelementptr inbounds nuw i8, ptr %0, i64 2
  %11 = load i8, ptr %10, align 1, !tbaa !95
  switch i8 %11, label %18 [
    i8 120, label %12
    i8 115, label %14
    i8 83, label %16
    i8 45, label %20
  ]

12:                                               ; preds = %9
  %13 = or i32 %.1, 64
  br label %20

14:                                               ; preds = %9
  %15 = or i32 %.1, 2112
  br label %20

16:                                               ; preds = %9
  %17 = or i32 %.1, 2048
  br label %20

18:                                               ; preds = %9
  %19 = or i32 %.1, 16777216
  br label %20

20:                                               ; preds = %9, %14, %18, %16, %12
  %.2 = phi i32 [ %13, %12 ], [ %15, %14 ], [ %17, %16 ], [ %19, %18 ], [ %.1, %9 ]
  %21 = getelementptr inbounds nuw i8, ptr %0, i64 3
  %22 = load i8, ptr %21, align 1, !tbaa !95
  switch i8 %22, label %25 [
    i8 114, label %23
    i8 45, label %27
  ]

23:                                               ; preds = %20
  %24 = or i32 %.2, 32
  br label %27

25:                                               ; preds = %20
  %26 = or i32 %.2, 16777216
  br label %27

27:                                               ; preds = %20, %25, %23
  %.3 = phi i32 [ %24, %23 ], [ %26, %25 ], [ %.2, %20 ]
  %28 = getelementptr inbounds nuw i8, ptr %0, i64 4
  %29 = load i8, ptr %28, align 1, !tbaa !95
  switch i8 %29, label %32 [
    i8 119, label %30
    i8 45, label %34
  ]

30:                                               ; preds = %27
  %31 = or i32 %.3, 16
  br label %34

32:                                               ; preds = %27
  %33 = or i32 %.3, 16777216
  br label %34

34:                                               ; preds = %27, %32, %30
  %.4 = phi i32 [ %31, %30 ], [ %33, %32 ], [ %.3, %27 ]
  %35 = getelementptr inbounds nuw i8, ptr %0, i64 5
  %36 = load i8, ptr %35, align 1, !tbaa !95
  switch i8 %36, label %43 [
    i8 120, label %37
    i8 115, label %39
    i8 83, label %41
    i8 45, label %45
  ]

37:                                               ; preds = %34
  %38 = or i32 %.4, 8
  br label %45

39:                                               ; preds = %34
  %40 = or i32 %.4, 1032
  br label %45

41:                                               ; preds = %34
  %42 = or i32 %.4, 1024
  br label %45

43:                                               ; preds = %34
  %44 = or i32 %.4, 16777216
  br label %45

45:                                               ; preds = %34, %39, %43, %41, %37
  %.5 = phi i32 [ %38, %37 ], [ %40, %39 ], [ %42, %41 ], [ %44, %43 ], [ %.4, %34 ]
  %46 = getelementptr inbounds nuw i8, ptr %0, i64 6
  %47 = load i8, ptr %46, align 1, !tbaa !95
  switch i8 %47, label %50 [
    i8 114, label %48
    i8 45, label %52
  ]

48:                                               ; preds = %45
  %49 = or i32 %.5, 4
  br label %52

50:                                               ; preds = %45
  %51 = or i32 %.5, 16777216
  br label %52

52:                                               ; preds = %45, %50, %48
  %.6 = phi i32 [ %49, %48 ], [ %51, %50 ], [ %.5, %45 ]
  %53 = getelementptr inbounds nuw i8, ptr %0, i64 7
  %54 = load i8, ptr %53, align 1, !tbaa !95
  switch i8 %54, label %57 [
    i8 119, label %55
    i8 45, label %59
  ]

55:                                               ; preds = %52
  %56 = or i32 %.6, 2
  br label %59

57:                                               ; preds = %52
  %58 = or i32 %.6, 16777216
  br label %59

59:                                               ; preds = %52, %57, %55
  %.7 = phi i32 [ %56, %55 ], [ %58, %57 ], [ %.6, %52 ]
  %60 = getelementptr inbounds nuw i8, ptr %0, i64 8
  %61 = load i8, ptr %60, align 1, !tbaa !95
  switch i8 %61, label %68 [
    i8 120, label %62
    i8 116, label %64
    i8 84, label %66
    i8 45, label %70
  ]

62:                                               ; preds = %59
  %63 = or i32 %.7, 1
  br label %70

64:                                               ; preds = %59
  %65 = or i32 %.7, 513
  br label %70

66:                                               ; preds = %59
  %67 = or i32 %.7, 512
  br label %70

68:                                               ; preds = %59
  %69 = or i32 %.7, 16777216
  br label %70

70:                                               ; preds = %59, %64, %68, %66, %62
  %.8 = phi i32 [ %63, %62 ], [ %65, %64 ], [ %67, %66 ], [ %69, %68 ], [ %.7, %59 ]
  ret i32 %.8
}